(dp0
S'anckle'
p1
(dp2
S'freq'
p3
(dp4
S'cols'
p5
(lp6
sS'features'
p7
(lp8
ssS'vel'
p9
(dp10
g5
(lp11
sg7
(lp12
ssS'peak'
p13
(dp14
g5
(lp15
(S'simple'
p16
S'sg'
p17
I00
tp18
a(S'cwt'
p19
S'butter'
p20
I01
tp21
asg7
(lp22
S'maxDist'
p23
assS'time'
p24
(dp25
g5
(lp26
sg7
(lp27
sssS'hip'
p28
(dp29
g3
(dp30
g5
(lp31
sg7
(lp32
ssg9
(dp33
g5
(lp34
S'Vx'
p35
asg7
(lp36
S'av'
p37
assg13
(dp38
g5
(lp39
sg7
(lp40
ssg24
(dp41
g5
(lp42
S'Ax'
p43
asg7
(lp44
S'min'
p45
asss.