(dp0
S'anckle'
p1
(dp2
S'freq'
p3
(dp4
S'cols'
p5
(lp6
sS'features'
p7
(lp8
ssS'time'
p9
(dp10
g5
(lp11
S'Ax'
p12
asg7
(lp13
S'min'
p14
assS'vel'
p15
(dp16
g5
(lp17
S'Vx'
p18
asg7
(lp19
S'av'
p20
assS'peak'
p21
(dp22
g5
(lp23
(S'simple'
p24
Ntp25
a(S'cwt'
p26
S'butter'
p27
I01
tp28
asg7
(lp29
S'maxDist'
p30
asssS'hip'
p31
(dp32
g3
(dp33
g5
(lp34
sg7
(lp35
ssg9
(dp36
g5
(lp37
S'Ax'
p38
asg7
(lp39
S'min'
p40
assg15
(dp41
g5
(lp42
S'Vx'
p43
asg7
(lp44
S'av'
p45
assg21
(dp46
g5
(lp47
(S'simple'
p48
Ntp49
a(S'cwt'
p50
S'butter'
p51
I01
tp52
asg7
(lp53
S'maxDist'
p54
asss.