(dp0
S'anckle'
p1
(dp2
S'freq'
p3
(dp4
S'cols'
p5
(lp6
S'Ax'
p7
aS'Ay'
p8
aS'Az'
p9
aS'Atotal'
p10
asS'features'
p11
(lp12
S'fcovar'
p13
aS'MF'
p14
aS'F'
p15
assS'vel'
p16
(dp17
g5
(lp18
S'Vx'
p19
aS'Vy'
p20
aS'Vz'
p21
asg11
(lp22
S'covar'
p23
aS'max'
p24
aS'min'
p25
aS'median'
p26
aS'av'
p27
assS'peak'
p28
(dp29
g5
(lp30
(S'simple'
p31
Ntp32
a(S'cwt'
p33
Ntp34
a(g31
S'hilbert'
p35
I01
tp36
a(g31
g35
I00
tp37
a(g31
S'sg'
p38
I01
tp39
a(g31
g38
I00
tp40
a(g31
S'butter'
p41
I01
tp42
a(g31
g41
I00
tp43
a(g33
g35
I01
tp44
a(g33
g35
I00
tp45
a(g33
g38
I01
tp46
a(g33
g38
I00
tp47
a(g33
g41
I01
tp48
a(g33
g41
I00
tp49
asg11
(lp50
S'varDist'
p51
aS'maxDist'
p52
aS'avDist'
p53
aS'varPeak'
p54
aS'avPeak'
p55
aS'minDist'
p56
aS'maxPeak'
p57
aS'minPeak'
p58
assS'time'
p59
(dp60
g5
(lp61
g7
ag8
ag9
ag10
asg11
(lp62
g23
ag24
ag25
ag26
ag27
asssS'hip'
p63
g2
s.